target datalayout = "e-m:e-p270:32:32-p271:32:32-p272:64:64-i64:64-i128:128-f80:128-n8:16:32:64-S128"
target triple = "x86_64-unknown-linux-gnu"

%"class.net::TcpCubicSenderPackets" = type { %"class.net::TcpCubicSenderBase.base", %"class.net::Cubic", i64, i64, i64, i64, i64, i64, i64, i64 }
%"class.net::TcpCubicSenderBase.base" = type <{ %"class.net::SendAlgorithmInterface", %"class.net::HybridSlowStart", %"class.net::PrrSender", ptr, ptr, i8, [3 x i8], i32, i64, i64, i64, i8, i8, i8, i8, i8 }>
%"class.net::SendAlgorithmInterface" = type { ptr }
%"class.net::HybridSlowStart" = type { i8, i32, i64, i64, i32, %"class.net::QuicTime::Delta" }
%"class.net::QuicTime::Delta" = type { %"class.base::TimeDelta", i64 }
%"class.base::TimeDelta" = type { i64 }
%"class.net::PrrSender" = type { i64, i64, i64, i64 }
%"class.net::Cubic" = type { ptr, i32, %"class.net::QuicTime", %"class.net::QuicTime", %"class.net::QuicTime", i64, i64, i64, i64, i64, i32, i64 }
%"class.net::QuicTime" = type { i64 }
%"class.net::QuicBandwidth" = type { i64 }

@FLAGS_quic_no_lower_bw_resumption_limit = external global i8, align 1
@_ZN3netL30kMaxResumptionCongestionWindowE = internal constant i64 200, align 8
@_ZN3netL42kMinCongestionWindowForBandwidthResumptionE = internal constant i64 10, align 8

; Function Attrs: mustprogress nounwind uwtable
define linkonce_odr dso_local noundef nonnull align 8 dereferenceable(8) ptr @_ZSt3maxImERKT_S2_S2_(ptr noundef nonnull align 8 dereferenceable(8) %__a, ptr noundef nonnull align 8 dereferenceable(8) %__b) #3 comdat {
entry:
  %retval = alloca ptr, align 8
  %__a.addr = alloca ptr, align 8
  %__b.addr = alloca ptr, align 8
  store ptr %__a, ptr %__a.addr, align 8
  store ptr %__b, ptr %__b.addr, align 8
  %0 = load ptr, ptr %__a.addr, align 8
  %1 = load i64, ptr %0, align 8
  %2 = load ptr, ptr %__b.addr, align 8
  %3 = load i64, ptr %2, align 8
  %cmp = icmp ult i64 %1, %3
  br i1 %cmp, label %if.then, label %if.end

if.then:                                          ; preds = %entry
  %4 = load ptr, ptr %__b.addr, align 8
  store ptr %4, ptr %retval, align 8
  br label %return

if.end:                                           ; preds = %entry
  %5 = load ptr, ptr %__a.addr, align 8
  store ptr %5, ptr %retval, align 8
  br label %return

return:                                           ; preds = %if.end, %if.then
  %6 = load ptr, ptr %retval, align 8
  ret ptr %6
}

; Function Attrs: mustprogress nounwind uwtable
define linkonce_odr dso_local noundef nonnull align 8 dereferenceable(8) ptr @_ZSt3minImERKT_S2_S2_(ptr noundef nonnull align 8 dereferenceable(8) %__a, ptr noundef nonnull align 8 dereferenceable(8) %__b) #3 comdat {
entry:
  %retval = alloca ptr, align 8
  %__a.addr = alloca ptr, align 8
  %__b.addr = alloca ptr, align 8
  store ptr %__a, ptr %__a.addr, align 8
  store ptr %__b, ptr %__b.addr, align 8
  %0 = load ptr, ptr %__b.addr, align 8
  %1 = load i64, ptr %0, align 8
  %2 = load ptr, ptr %__a.addr, align 8
  %3 = load i64, ptr %2, align 8
  %cmp = icmp ult i64 %1, %3
  br i1 %cmp, label %if.then, label %if.end

if.then:                                          ; preds = %entry
  %4 = load ptr, ptr %__b.addr, align 8
  store ptr %4, ptr %retval, align 8
  br label %return

if.end:                                           ; preds = %entry
  %5 = load ptr, ptr %__a.addr, align 8
  store ptr %5, ptr %retval, align 8
  br label %return

return:                                           ; preds = %if.end, %if.then
  %6 = load ptr, ptr %retval, align 8
  ret ptr %6
}

; Function Attrs: mustprogress uwtable
define dso_local void @_ZN3net21TcpCubicSenderPackets38SetCongestionWindowFromBandwidthAndRttENS_13QuicBandwidthENS_8QuicTime5DeltaE(ptr noundef nonnull align 8 dereferenceable(304) %this, i64 %bandwidth.coerce, i64 %rtt.coerce0, i64 %rtt.coerce1) unnamed_addr #0 align 2 {
entry:
  %bandwidth = alloca %"class.net::QuicBandwidth", align 8
  %rtt = alloca %"class.net::QuicTime::Delta", align 8
  %this.addr = alloca ptr, align 8
  %new_congestion_window = alloca i64, align 8
  %agg.tmp = alloca %"class.net::QuicTime::Delta", align 8
  %coerce.dive = getelementptr inbounds %"class.net::QuicBandwidth", ptr %bandwidth, i32 0, i32 0
  store i64 %bandwidth.coerce, ptr %coerce.dive, align 8
  %0 = getelementptr inbounds { i64, i64 }, ptr %rtt, i32 0, i32 0
  store i64 %rtt.coerce0, ptr %0, align 8
  %1 = getelementptr inbounds { i64, i64 }, ptr %rtt, i32 0, i32 1
  store i64 %rtt.coerce1, ptr %1, align 8
  store ptr %this, ptr %this.addr, align 8
  %this1 = load ptr, ptr %this.addr, align 8
  call void @llvm.memcpy.p0.p0.i64(ptr align 8 %agg.tmp, ptr align 8 %rtt, i64 16, i1 false)
  %2 = getelementptr inbounds { i64, i64 }, ptr %agg.tmp, i32 0, i32 0
  %3 = load i64, ptr %2, align 8
  %4 = getelementptr inbounds { i64, i64 }, ptr %agg.tmp, i32 0, i32 1
  %5 = load i64, ptr %4, align 8
  %call = call noundef i64 @_ZNK3net13QuicBandwidth16ToBytesPerPeriodENS_8QuicTime5DeltaE(ptr noundef nonnull align 8 dereferenceable(8) %bandwidth, i64 %3, i64 %5)
  %div = udiv i64 %call, 1460
  store i64 %div, ptr %new_congestion_window, align 8
  %6 = load i8, ptr @FLAGS_quic_no_lower_bw_resumption_limit, align 1
  %tobool = trunc i8 %6 to i1
  br i1 %tobool, label %if.then, label %if.else

if.then:                                          ; preds = %entry
  %min_congestion_window_ = getelementptr inbounds %"class.net::TcpCubicSenderPackets", ptr %this1, i32 0, i32 4
  %call2 = call noundef nonnull align 8 dereferenceable(8) ptr @_ZSt3minImERKT_S2_S2_(ptr noundef nonnull align 8 dereferenceable(8) %new_congestion_window, ptr noundef nonnull align 8 dereferenceable(8) @_ZN3netL30kMaxResumptionCongestionWindowE)
  %call3 = call noundef nonnull align 8 dereferenceable(8) ptr @_ZSt3maxImERKT_S2_S2_(ptr noundef nonnull align 8 dereferenceable(8) %min_congestion_window_, ptr noundef nonnull align 8 dereferenceable(8) %call2)
  %7 = load i64, ptr %call3, align 8
  %congestion_window_ = getelementptr inbounds %"class.net::TcpCubicSenderPackets", ptr %this1, i32 0, i32 3
  store i64 %7, ptr %congestion_window_, align 8
  br label %if.end

if.else:                                          ; preds = %entry
  %call4 = call noundef nonnull align 8 dereferenceable(8) ptr @_ZSt3minImERKT_S2_S2_(ptr noundef nonnull align 8 dereferenceable(8) %new_congestion_window, ptr noundef nonnull align 8 dereferenceable(8) @_ZN3netL30kMaxResumptionCongestionWindowE)
  %call5 = call noundef nonnull align 8 dereferenceable(8) ptr @_ZSt3maxImERKT_S2_S2_(ptr noundef nonnull align 8 dereferenceable(8) %call4, ptr noundef nonnull align 8 dereferenceable(8) @_ZN3netL42kMinCongestionWindowForBandwidthResumptionE)
  %8 = load i64, ptr %call5, align 8
  %congestion_window_6 = getelementptr inbounds %"class.net::TcpCubicSenderPackets", ptr %this1, i32 0, i32 3
  store i64 %8, ptr %congestion_window_6, align 8
  br label %if.end

if.end:                                           ; preds = %if.else, %if.then
  ret void
}