; Function Attrs: mustprogress uwtable
define dso_local void @_ZN3net21TcpCubicSenderPackets38SetCongestionWindowFromBandwidthAndRttENS_13QuicBandwidthENS_8QuicTime5DeltaE(ptr nocapture noundef nonnull align 8 dereferenceable(304) %this, i64 %bandwidth.coerce, i64 %rtt.coerce0, i64 %rtt.coerce1) unnamed_addr #0 align 2 {
entry:
  %bandwidth = alloca %"class.net::QuicBandwidth", align 8
  store i64 %bandwidth.coerce, ptr %bandwidth, align 8
  %call = call noundef i64 @_ZNK3net13QuicBandwidth16ToBytesPerPeriodENS_8QuicTime5DeltaE(ptr noundef nonnull align 8 dereferenceable(8) %bandwidth, i64 %rtt.coerce0, i64 %rtt.coerce1)
  %div = udiv i64 %call, 1460
  %0 = load i8, ptr @FLAGS_quic_no_lower_bw_resumption_limit, align 1
  %1 = and i8 %0, 1
  %tobool.not = icmp eq i8 %1, 0
  br i1 %tobool.not, label %if.else, label %if.then

if.then:                                          ; preds = %entry
  %min_congestion_window_ = getelementptr inbounds i8, ptr %this, i64 256
  %cmp.i = icmp ugt i64 %call, 293459
  %2 = load i64, ptr %min_congestion_window_, align 8
  %3 = select i1 %cmp.i, i64 200, i64 %div
  %4 = call i64 @llvm.umax.i64(i64 %2, i64 %3)
  br label %if.end

if.else:                                          ; preds = %entry
  %cmp.i3 = icmp ugt i64 %call, 293459
  %5 = call i64 @llvm.umax.i64(i64 %div, i64 10)
  %6 = select i1 %cmp.i3, i64 200, i64 %5
  br label %if.end

if.end:                                           ; preds = %if.else, %if.then
  %.sink = phi i64 [ %6, %if.else ], [ %4, %if.then ]
  %7 = getelementptr inbounds i8, ptr %this, i64 248
  store i64 %.sink, ptr %7, align 8
  ret void
}